; Function Attrs: nounwind uwtable
define internal range(i32 0, 2) i32 @kdf_tls1_prf_get_ctx_params(ptr readnone captures(none) %0, ptr noundef %1) #0 {
  %3 = tail call ptr @OSSL_PARAM_locate(ptr noundef %1, ptr noundef nonnull @.str.9) #7
  %.not = icmp eq ptr %3, null
  br i1 %.not, label %6, label %4

4:                                                ; preds = %2
  %5 = tail call i32 @OSSL_PARAM_set_size_t(ptr noundef nonnull %3, i64 noundef -1) #7
  %.not3 = icmp eq i32 %5, 0
  br i1 %.not3, label %7, label %6

6:                                                ; preds = %4, %2
  br label %7

7:                                                ; preds = %4, %6
  %.0 = phi i32 [ 1, %6 ], [ 0, %4 ]
  ret i32 %.0
}